target datalayout = "e-m:e-p270:32:32-p271:32:32-p272:64:64-i64:64-i128:128-f80:128-n8:16:32:64-S128"
target triple = "x86_64-pc-linux-gnu"

%struct.UPVecToUTrie2Context = type { ptr, i32, i32, i32 }

; Function Attrs: inlinehint mustprogress nounwind uwtable
define internal noundef signext i8 @_ZL9U_FAILURE10UErrorCode(i32 noundef %0) #2 {
  %2 = alloca i32, align 4
  store i32 %0, ptr %2, align 4, !tbaa !9
  %3 = load i32, ptr %2, align 4, !tbaa !9
  %4 = icmp sgt i32 %3, 0
  %5 = zext i1 %4 to i8
  ret i8 %5
}

; Function Attrs: mustprogress uwtable
define ptr @upvec_compactToUTrie2WithRowIndexes_77(ptr noundef %0, ptr noundef %1) #0 {
  %3 = alloca ptr, align 8
  %4 = alloca ptr, align 8
  %5 = alloca %struct.UPVecToUTrie2Context, align 8
  store ptr %0, ptr %3, align 8, !tbaa !11
  store ptr %1, ptr %4, align 8, !tbaa !7
  call void @llvm.lifetime.start.p0(i64 24, ptr %5) #9
  call void @llvm.memset.p0.i64(ptr align 8 %5, i8 0, i64 24, i1 false)
  %6 = load ptr, ptr %3, align 8, !tbaa !11
  %7 = load ptr, ptr %4, align 8, !tbaa !7
  call void @upvec_compact_77(ptr noundef %6, ptr noundef @upvec_compactToUTrie2Handler_77, ptr noundef %5, ptr noundef %7)
  %8 = getelementptr inbounds nuw %struct.UPVecToUTrie2Context, ptr %5, i32 0, i32 0
  %9 = load ptr, ptr %8, align 8, !tbaa !31
  %10 = load ptr, ptr %4, align 8, !tbaa !7
  call void @utrie2_freeze_77(ptr noundef %9, i32 noundef 0, ptr noundef %10)
  %11 = load ptr, ptr %4, align 8, !tbaa !7
  %12 = load i32, ptr %11, align 4, !tbaa !9
  %13 = call noundef signext i8 @_ZL9U_FAILURE10UErrorCode(i32 noundef %12)
  %14 = icmp ne i8 %13, 0
  br i1 %14, label %15, label %19

15:                                               ; preds = %2
  %16 = getelementptr inbounds nuw %struct.UPVecToUTrie2Context, ptr %5, i32 0, i32 0
  %17 = load ptr, ptr %16, align 8, !tbaa !31
  call void @utrie2_close_77(ptr noundef %17)
  %18 = getelementptr inbounds nuw %struct.UPVecToUTrie2Context, ptr %5, i32 0, i32 0
  store ptr null, ptr %18, align 8, !tbaa !31
  br label %19

19:                                               ; preds = %15, %2
  %20 = getelementptr inbounds nuw %struct.UPVecToUTrie2Context, ptr %5, i32 0, i32 0
  %21 = load ptr, ptr %20, align 8, !tbaa !31
  call void @llvm.lifetime.end.p0(i64 24, ptr %5) #9
  ret ptr %21
}