; Function Attrs: mustprogress uwtable
define ptr @upvec_compactToUTrie2WithRowIndexes_77(ptr noundef %0, ptr noundef %1) local_unnamed_addr #0 {
  %3 = alloca %struct.UPVecToUTrie2Context, align 8
  call void @llvm.lifetime.start.p0(i64 24, ptr nonnull %3) #12
  call void @llvm.memset.p0.i64(ptr noundef nonnull align 8 dereferenceable(24) %3, i8 0, i64 24, i1 false)
  call void @upvec_compact_77(ptr noundef %0, ptr noundef nonnull @upvec_compactToUTrie2Handler_77, ptr noundef nonnull %3, ptr noundef %1)
  %4 = load ptr, ptr %3, align 8, !tbaa !26
  call void @utrie2_freeze_77(ptr noundef %4, i32 noundef 0, ptr noundef %1)
  %5 = load i32, ptr %1, align 4, !tbaa !3
  %6 = icmp slt i32 %5, 1
  %.pre = load ptr, ptr %3, align 8, !tbaa !26
  br i1 %6, label %8, label %7

7:                                                ; preds = %2
  call void @utrie2_close_77(ptr noundef %.pre)
  br label %8

8:                                                ; preds = %7, %2
  %9 = phi ptr [ null, %7 ], [ %.pre, %2 ]
  call void @llvm.lifetime.end.p0(i64 24, ptr nonnull %3) #12
  ret ptr %9
}